target datalayout = "e-m:e-p270:32:32-p271:32:32-p272:64:64-i64:64-i128:128-f80:128-n8:16:32:64-S128"
target triple = "x86_64-pc-linux-gnu"

@plugin_type = external constant [0 x i8], align 1
@.str.4 = private unnamed_addr constant [61 x i8] c"%s: %s: sched_getaffinity(%d,%zu,0x%s) failed with status %d\00", align 1
@__func__.slurm_getaffinity = private unnamed_addr constant [18 x i8] c"slurm_getaffinity\00", align 1
@.str.5 = private unnamed_addr constant [37 x i8] c"%s: %s: sched_getaffinity(%d) = 0x%s\00", align 1

; Function Attrs: nounwind uwtable
define dso_local i32 @slurm_getaffinity(i32 noundef %0, i64 noundef %1, ptr noundef %2) #0 {
  %4 = alloca i32, align 4
  %5 = alloca i64, align 8
  %6 = alloca ptr, align 8
  %7 = alloca i32, align 4
  %8 = alloca [257 x i8], align 16
  store i32 %0, ptr %4, align 4
  store i64 %1, ptr %5, align 8
  store ptr %2, ptr %6, align 8
  call void @llvm.lifetime.start.p0(i64 4, ptr %7) #6
  call void @llvm.lifetime.start.p0(i64 257, ptr %8) #6
  br label %9

9:                                                ; preds = %3
  %10 = load ptr, ptr %6, align 8
  call void @llvm.memset.p0.i64(ptr align 8 %10, i8 0, i64 128, i1 false)
  br label %11

11:                                               ; preds = %9
  br label %12

12:                                               ; preds = %11
  %13 = load i32, ptr %4, align 4
  %14 = load i64, ptr %5, align 8
  %15 = load ptr, ptr %6, align 8
  %16 = call i32 @sched_getaffinity(i32 noundef %13, i64 noundef %14, ptr noundef %15) #6
  store i32 %16, ptr %7, align 4
  %17 = load i32, ptr %7, align 4
  %18 = icmp ne i32 %17, 0
  br i1 %18, label %19, label %36

19:                                               ; preds = %12
  br label %20

20:                                               ; preds = %19
  br label %21

21:                                               ; preds = %20
  %22 = call i32 @slurm_get_log_level()
  %23 = icmp sge i32 %22, 4
  br i1 %23, label %24, label %31

24:                                               ; preds = %21
  %25 = load i32, ptr %4, align 4
  %26 = load i64, ptr %5, align 8
  %27 = load ptr, ptr %6, align 8
  %28 = getelementptr inbounds [257 x i8], ptr %8, i64 0, i64 0
  %29 = call ptr @task_cpuset_to_str(ptr noundef %27, ptr noundef %28)
  %30 = load i32, ptr %7, align 4
  call void (i32, ptr, ...) @slurm_log_var(i32 noundef 4, ptr noundef @.str.4, ptr noundef @plugin_type, ptr noundef @__func__.slurm_getaffinity, i32 noundef %25, i64 noundef %26, ptr noundef %29, i32 noundef %30)
  br label %31

31:                                               ; preds = %24, %21
  br label %32

32:                                               ; preds = %31
  br label %33

33:                                               ; preds = %32
  br label %34

34:                                               ; preds = %33
  br label %35

35:                                               ; preds = %34
  br label %51

36:                                               ; preds = %12
  br label %37

37:                                               ; preds = %36
  br label %38

38:                                               ; preds = %37
  %39 = call i32 @slurm_get_log_level()
  %40 = icmp sge i32 %39, 7
  br i1 %40, label %41, label %46

41:                                               ; preds = %38
  %42 = load i32, ptr %4, align 4
  %43 = load ptr, ptr %6, align 8
  %44 = getelementptr inbounds [257 x i8], ptr %8, i64 0, i64 0
  %45 = call ptr @task_cpuset_to_str(ptr noundef %43, ptr noundef %44)
  call void (i32, ptr, ...) @slurm_log_var(i32 noundef 7, ptr noundef @.str.5, ptr noundef @plugin_type, ptr noundef @__func__.slurm_getaffinity, i32 noundef %42, ptr noundef %45)
  br label %46

46:                                               ; preds = %41, %38
  br label %47

47:                                               ; preds = %46
  br label %48

48:                                               ; preds = %47
  br label %49

49:                                               ; preds = %48
  br label %50

50:                                               ; preds = %49
  br label %51

51:                                               ; preds = %50, %35
  %52 = load i32, ptr %7, align 4
  call void @llvm.lifetime.end.p0(i64 257, ptr %8) #6
  call void @llvm.lifetime.end.p0(i64 4, ptr %7) #6
  ret i32 %52
}