; Function Attrs: nounwind uwtable
define dso_local i32 @slurm_getaffinity(i32 noundef %0, i64 noundef %1, ptr noundef initializes((0, 128)) %2) local_unnamed_addr #0 {
  %4 = alloca [257 x i8], align 16
  call void @llvm.lifetime.start.p0(i64 257, ptr nonnull %4) #7
  tail call void @llvm.memset.p0.i64(ptr noundef nonnull align 8 dereferenceable(128) %2, i8 0, i64 128, i1 false)
  %5 = tail call i32 @sched_getaffinity(i32 noundef %0, i64 noundef %1, ptr noundef nonnull %2) #7
  %.not = icmp eq i32 %5, 0
  %6 = tail call i32 @slurm_get_log_level() #7
  br i1 %.not, label %11, label %7

7:                                                ; preds = %3
  %8 = icmp sgt i32 %6, 3
  br i1 %8, label %9, label %15

9:                                                ; preds = %7
  %10 = call ptr @task_cpuset_to_str(ptr noundef nonnull %2, ptr noundef nonnull %4) #7
  call void (i32, ptr, ...) @slurm_log_var(i32 noundef 4, ptr noundef nonnull @.str.4, ptr noundef nonnull @plugin_type, ptr noundef nonnull @__func__.slurm_getaffinity, i32 noundef %0, i64 noundef %1, ptr noundef %10, i32 noundef %5) #7
  br label %15

11:                                               ; preds = %3
  %12 = icmp sgt i32 %6, 6
  br i1 %12, label %13, label %15

13:                                               ; preds = %11
  %14 = call ptr @task_cpuset_to_str(ptr noundef nonnull %2, ptr noundef nonnull %4) #7
  call void (i32, ptr, ...) @slurm_log_var(i32 noundef 7, ptr noundef nonnull @.str.5, ptr noundef nonnull @plugin_type, ptr noundef nonnull @__func__.slurm_getaffinity, i32 noundef %0, ptr noundef %14) #7
  br label %15

15:                                               ; preds = %11, %13, %7, %9
  call void @llvm.lifetime.end.p0(i64 257, ptr nonnull %4) #7
  ret i32 %5
}